(lp1
S'background'
p2
aVperson
p3
aVbicycle
p4
aVcar
p5
aVmotorcycle
p6
aVairplane
p7
aVbus
p8
aVtrain
p9
aVtruck
p10
aVboat
p11
aVtraffic light
p12
aVfire hydrant
p13
aVstop sign
p14
aVparking meter
p15
aVbench
p16
aVbird
p17
aVcat
p18
aVdog
p19
aVhorse
p20
aVsheep
p21
aVcow
p22
aVelephant
p23
aVbear
p24
aVzebra
p25
aVgiraffe
p26
aVbackpack
p27
aVumbrella
p28
aVhandbag
p29
aVtie
p30
aVsuitcase
p31
aVfrisbee
p32
aVskis
p33
aVsnowboard
p34
aVsports ball
p35
aVkite
p36
aVbaseball bat
p37
aVbaseball glove
p38
aVskateboard
p39
aVsurfboard
p40
aVtennis racket
p41
aVbottle
p42
aVwine glass
p43
aVcup
p44
aVfork
p45
aVknife
p46
aVspoon
p47
aVbowl
p48
aVbanana
p49
aVapple
p50
aVsandwich
p51
aVorange
p52
aVbroccoli
p53
aVcarrot
p54
aVhot dog
p55
aVpizza
p56
aVdonut
p57
aVcake
p58
aVchair
p59
aVcouch
p60
aVpotted plant
p61
aVbed
p62
aVdining table
p63
aVtoilet
p64
aVtv
p65
aVlaptop
p66
aVmouse
p67
aVremote
p68
aVkeyboard
p69
aVcell phone
p70
aVmicrowave
p71
aVoven
p72
aVtoaster
p73
aVsink
p74
aVrefrigerator
p75
aVbook
p76
aVclock
p77
aVvase
p78
aVscissors
p79
aVteddy bear
p80
aVhair drier
p81
aVtoothbrush
p82
aS'no interaction'
p83
aVboard
p84
aVdirect
p85
aVexit
p86
aVfly
p87
aVinspect
p88
aVload
p89
aVride
p90
aVsit on
p91
aVwash
p92
aVcarry
p93
aVhold
p94
aVjump
p95
aVhop on
p96
aVpark
p97
aVpush
p98
aVrepair
p99
aVstraddle
p100
aVwalk
p101
aVchase
p102
aVfeed
p103
aVpet
p104
aVrelease
p105
aVwatch
p106
aVdrive
p107
aVlaunch
p108
aVrow
p109
aVsail
p110
aVstand on
p111
aVtie
p112
aVdrink with
p113
aVlick
p114
aVopen
p115
aVpour
p116
aVwave
p117
aVhose
p118
aVdry
p119
aVhug
p120
aVkiss
p121
aVscratch
p122
aVlie on
p123
aVherd
p124
aVlasso
p125
aVmilk
p126
aVclean
p127
aVeat at
p128
aVsit at
p129
aVgroom
p130
aVrun
p131
aVtrain
p132
aVrace
p133
aVturn
p134
aVgreet
p135
aVstab
p136
aVtag
p137
aVteach
p138
aVshear
p139
aVcontrol
p140
aVbuy
p141
aVcut
p142
aVeat
p143
aVpeel
p144
aVpick
p145
aVsmell
p146
aVwear
p147
aVbreak
p148
aVsign
p149
aVswing
p150
aVthrow
p151
aVwield
p152
aVhunt
p153
aVread
p154
aVstir
p155
aVblow
p156
aVlight
p157
aVmake
p158
aVpick up
p159
aVcook
p160
aVtalk on
p161
aVtext on
p162
aVcheck
p163
aVset
p164
aVsip
p165
aVfill
p166
aVpaint
p167
aVlift
p168
aVstick
p169
aVblock
p170
aVcatch
p171
aVspin
p172
aVoperate
p173
aVtype on
p174
aVassemble
p175
aVpull
p176
aVcut with
p177
aVsqueeze
p178
aVpay
p179
aVslide
p180
aVmove
p181
aVpoint
p182
aVflip
p183
aVgrind
p184
aVadjust
p185
aVdribble
p186
aVhit
p187
aVkick
p188
aVserve
p189
aVstand under
p190
aVstop at
p191
aVdrag
p192
aVpack
p193
aVzip
p194
aVflush
p195
aVbrush with
p196
aVinstall
p197
aVlose
p198
aVtoast
p199
a.